target datalayout = "e-m:e-p270:32:32-p271:32:32-p272:64:64-i64:64-i128:128-f80:128-n8:16:32:64-S128"
target triple = "x86_64-pc-linux-gnu"

%struct.OSSL_HPKE_KEM_INFO = type { i16, ptr, ptr, ptr, i64, i64, i64, i64, i8 }
%struct.ecx_key_st = type { ptr, ptr, i8, [57 x i8], ptr, i64, i32, %struct.CRYPTO_REF_COUNT }
%struct.CRYPTO_REF_COUNT = type { i32 }
%struct.PROV_ECX_CTX = type { ptr, ptr, ptr, ptr, i32, i32, ptr, i64, ptr, ptr }
%struct.ossl_param_st = type { ptr, i32, ptr, i64, i64 }

@.str = private unnamed_addr constant [51 x i8] c"../openssl/providers/implementations/kem/ecx_kem.c\00", align 1
@.str.7 = private unnamed_addr constant [21 x i8] c"*secretlen too small\00", align 1
@__func__.ecx_pubkey = private unnamed_addr constant [11 x i8] c"ecx_pubkey\00", align 1
@__func__.ecxkem_decapsulate = private unnamed_addr constant [19 x i8] c"ecxkem_decapsulate\00", align 1
@__func__.dhkem_decap = private unnamed_addr constant [12 x i8] c"dhkem_decap\00", align 1
@.str.11 = private unnamed_addr constant [23 x i8] c"Invalid enc public key\00", align 1
@.str.12 = private unnamed_addr constant [4 x i8] c"pub\00", align 1

; Function Attrs: nounwind uwtable
define internal ptr @ecx_pubkey(ptr noundef %0) #0 {
  %2 = alloca ptr, align 8
  %3 = alloca ptr, align 8
  store ptr %0, ptr %3, align 8, !tbaa !3
  %4 = load ptr, ptr %3, align 8, !tbaa !3
  %5 = icmp eq ptr %4, null
  br i1 %5, label %13, label %6

6:                                                ; preds = %1
  %7 = load ptr, ptr %3, align 8, !tbaa !3
  %8 = getelementptr inbounds nuw %struct.ecx_key_st, ptr %7, i32 0, i32 2
  %9 = load i8, ptr %8, align 8
  %10 = and i8 %9, 1
  %11 = zext i8 %10 to i32
  %12 = icmp ne i32 %11, 0
  br i1 %12, label %14, label %13

13:                                               ; preds = %6, %1
  call void @ERR_new()
  call void @ERR_set_debug(ptr noundef @.str, i32 noundef 152, ptr noundef @__func__.ecx_pubkey)
  call void (i32, i32, ptr, ...) @ERR_set_error(i32 noundef 57, i32 noundef 220, ptr noundef null)
  store ptr null, ptr %2, align 8
  br label %18

14:                                               ; preds = %6
  %15 = load ptr, ptr %3, align 8, !tbaa !3
  %16 = getelementptr inbounds nuw %struct.ecx_key_st, ptr %15, i32 0, i32 3
  %17 = getelementptr inbounds [57 x i8], ptr %16, i64 0, i64 0
  store ptr %17, ptr %2, align 8
  br label %18

18:                                               ; preds = %14, %13
  %19 = load ptr, ptr %2, align 8
  ret ptr %19
}

; Function Attrs: nounwind uwtable
define internal ptr @ecxkey_pubfromdata(ptr noundef %0, ptr noundef %1, i64 noundef %2) #0 {
  %4 = alloca ptr, align 8
  %5 = alloca ptr, align 8
  %6 = alloca ptr, align 8
  %7 = alloca i64, align 8
  %8 = alloca ptr, align 8
  %9 = alloca [2 x %struct.ossl_param_st], align 16
  %10 = alloca ptr, align 8
  %11 = alloca %struct.ossl_param_st, align 8
  %12 = alloca %struct.ossl_param_st, align 8
  %13 = alloca i32, align 4
  store ptr %0, ptr %5, align 8, !tbaa !16
  store ptr %1, ptr %6, align 8, !tbaa !8
  store i64 %2, ptr %7, align 8, !tbaa !10
  call void @llvm.lifetime.start.p0(i64 8, ptr %8) #5
  store ptr null, ptr %8, align 8, !tbaa !3
  call void @llvm.lifetime.start.p0(i64 80, ptr %9) #5
  call void @llvm.lifetime.start.p0(i64 8, ptr %10) #5
  %14 = getelementptr inbounds [2 x %struct.ossl_param_st], ptr %9, i64 0, i64 0
  store ptr %14, ptr %10, align 8, !tbaa !32
  %15 = load ptr, ptr %10, align 8, !tbaa !32
  %16 = getelementptr inbounds nuw %struct.ossl_param_st, ptr %15, i32 1
  store ptr %16, ptr %10, align 8, !tbaa !32
  call void @llvm.lifetime.start.p0(i64 40, ptr %11) #5
  %17 = load ptr, ptr %6, align 8, !tbaa !8
  %18 = load i64, ptr %7, align 8, !tbaa !10
  call void @OSSL_PARAM_construct_octet_string(ptr dead_on_unwind writable sret(%struct.ossl_param_st) align 8 %11, ptr noundef @.str.12, ptr noundef %17, i64 noundef %18)
  call void @llvm.memcpy.p0.p0.i64(ptr align 8 %15, ptr align 8 %11, i64 40, i1 false), !tbaa.struct !54
  call void @llvm.lifetime.end.p0(i64 40, ptr %11) #5
  %19 = load ptr, ptr %10, align 8, !tbaa !32
  call void @llvm.lifetime.start.p0(i64 40, ptr %12) #5
  call void @OSSL_PARAM_construct_end(ptr dead_on_unwind writable sret(%struct.ossl_param_st) align 8 %12)
  call void @llvm.memcpy.p0.p0.i64(ptr align 8 %19, ptr align 8 %12, i64 40, i1 false), !tbaa.struct !54
  call void @llvm.lifetime.end.p0(i64 40, ptr %12) #5
  %20 = load ptr, ptr %5, align 8, !tbaa !16
  %21 = getelementptr inbounds nuw %struct.PROV_ECX_CTX, ptr %20, i32 0, i32 2
  %22 = load ptr, ptr %21, align 8, !tbaa !30
  %23 = load ptr, ptr %5, align 8, !tbaa !16
  %24 = getelementptr inbounds nuw %struct.PROV_ECX_CTX, ptr %23, i32 0, i32 0
  %25 = load ptr, ptr %24, align 8, !tbaa !43
  %26 = getelementptr inbounds nuw %struct.ecx_key_st, ptr %25, i32 0, i32 6
  %27 = load i32, ptr %26, align 8, !tbaa !29
  %28 = load ptr, ptr %5, align 8, !tbaa !16
  %29 = getelementptr inbounds nuw %struct.PROV_ECX_CTX, ptr %28, i32 0, i32 3
  %30 = load ptr, ptr %29, align 8, !tbaa !51
  %31 = call ptr @ossl_ecx_key_new(ptr noundef %22, i32 noundef %27, i32 noundef 1, ptr noundef %30)
  store ptr %31, ptr %8, align 8, !tbaa !3
  %32 = load ptr, ptr %8, align 8, !tbaa !3
  %33 = icmp eq ptr %32, null
  br i1 %33, label %34, label %35

34:                                               ; preds = %3
  store ptr null, ptr %4, align 8
  store i32 1, ptr %13, align 4
  br label %44

35:                                               ; preds = %3
  %36 = load ptr, ptr %8, align 8, !tbaa !3
  %37 = getelementptr inbounds [2 x %struct.ossl_param_st], ptr %9, i64 0, i64 0
  %38 = call i32 @ossl_ecx_key_fromdata(ptr noundef %36, ptr noundef %37, i32 noundef 0)
  %39 = icmp sle i32 %38, 0
  br i1 %39, label %40, label %42

40:                                               ; preds = %35
  %41 = load ptr, ptr %8, align 8, !tbaa !3
  call void @ossl_ecx_key_free(ptr noundef %41)
  store ptr null, ptr %8, align 8, !tbaa !3
  br label %42

42:                                               ; preds = %40, %35
  %43 = load ptr, ptr %8, align 8, !tbaa !3
  store ptr %43, ptr %4, align 8
  store i32 1, ptr %13, align 4
  br label %44

44:                                               ; preds = %42, %34
  call void @llvm.lifetime.end.p0(i64 8, ptr %10) #5
  call void @llvm.lifetime.end.p0(i64 80, ptr %9) #5
  call void @llvm.lifetime.end.p0(i64 8, ptr %8) #5
  %45 = load ptr, ptr %4, align 8
  ret ptr %45
}

; Function Attrs: nounwind uwtable
define internal i32 @dhkem_decap(ptr noundef %0, ptr noundef %1, ptr noundef %2, ptr noundef %3, i64 noundef %4) #0 {
  %6 = alloca i32, align 4
  %7 = alloca ptr, align 8
  %8 = alloca ptr, align 8
  %9 = alloca ptr, align 8
  %10 = alloca ptr, align 8
  %11 = alloca i64, align 8
  %12 = alloca i32, align 4
  %13 = alloca ptr, align 8
  %14 = alloca ptr, align 8
  %15 = alloca ptr, align 8
  %16 = alloca ptr, align 8
  %17 = alloca i32, align 4
  store ptr %0, ptr %7, align 8, !tbaa !16
  store ptr %1, ptr %8, align 8, !tbaa !8
  store ptr %2, ptr %9, align 8, !tbaa !34
  store ptr %3, ptr %10, align 8, !tbaa !8
  store i64 %4, ptr %11, align 8, !tbaa !10
  call void @llvm.lifetime.start.p0(i64 4, ptr %12) #5
  store i32 0, ptr %12, align 4, !tbaa !12
  call void @llvm.lifetime.start.p0(i64 8, ptr %13) #5
  %18 = load ptr, ptr %7, align 8, !tbaa !16
  %19 = getelementptr inbounds nuw %struct.PROV_ECX_CTX, ptr %18, i32 0, i32 0
  %20 = load ptr, ptr %19, align 8, !tbaa !43
  store ptr %20, ptr %13, align 8, !tbaa !3
  call void @llvm.lifetime.start.p0(i64 8, ptr %14) #5
  store ptr null, ptr %14, align 8, !tbaa !3
  call void @llvm.lifetime.start.p0(i64 8, ptr %15) #5
  %21 = load ptr, ptr %7, align 8, !tbaa !16
  %22 = getelementptr inbounds nuw %struct.PROV_ECX_CTX, ptr %21, i32 0, i32 9
  %23 = load ptr, ptr %22, align 8, !tbaa !46
  store ptr %23, ptr %15, align 8, !tbaa !16
  call void @llvm.lifetime.start.p0(i64 8, ptr %16) #5
  %24 = load ptr, ptr %8, align 8, !tbaa !8
  %25 = icmp eq ptr %24, null
  br i1 %25, label %26, label %31

26:                                               ; preds = %5
  %27 = load ptr, ptr %15, align 8, !tbaa !16
  %28 = getelementptr inbounds nuw %struct.OSSL_HPKE_KEM_INFO, ptr %27, i32 0, i32 4
  %29 = load i64, ptr %28, align 8, !tbaa !28
  %30 = load ptr, ptr %9, align 8, !tbaa !34
  store i64 %29, ptr %30, align 8, !tbaa !10
  store i32 1, ptr %6, align 4
  store i32 1, ptr %17, align 4
  br label %86

31:                                               ; preds = %5
  %32 = load ptr, ptr %9, align 8, !tbaa !34
  %33 = load i64, ptr %32, align 8, !tbaa !10
  %34 = load ptr, ptr %15, align 8, !tbaa !16
  %35 = getelementptr inbounds nuw %struct.OSSL_HPKE_KEM_INFO, ptr %34, i32 0, i32 4
  %36 = load i64, ptr %35, align 8, !tbaa !28
  %37 = icmp ult i64 %33, %36
  br i1 %37, label %38, label %39

38:                                               ; preds = %31
  call void @ERR_new()
  call void @ERR_set_debug(ptr noundef @.str, i32 noundef 628, ptr noundef @__func__.dhkem_decap)
  call void (i32, i32, ptr, ...) @ERR_set_error(i32 noundef 57, i32 noundef 142, ptr noundef @.str.7)
  store i32 0, ptr %6, align 4
  store i32 1, ptr %17, align 4
  br label %86

39:                                               ; preds = %31
  %40 = load i64, ptr %11, align 8, !tbaa !10
  %41 = load ptr, ptr %15, align 8, !tbaa !16
  %42 = getelementptr inbounds nuw %struct.OSSL_HPKE_KEM_INFO, ptr %41, i32 0, i32 5
  %43 = load i64, ptr %42, align 8, !tbaa !50
  %44 = icmp ne i64 %40, %43
  br i1 %44, label %45, label %46

45:                                               ; preds = %39
  call void @ERR_new()
  call void @ERR_set_debug(ptr noundef @.str, i32 noundef 632, ptr noundef @__func__.dhkem_decap)
  call void (i32, i32, ptr, ...) @ERR_set_error(i32 noundef 57, i32 noundef 158, ptr noundef @.str.11)
  store i32 0, ptr %6, align 4
  store i32 1, ptr %17, align 4
  br label %86

46:                                               ; preds = %39
  %47 = load ptr, ptr %7, align 8, !tbaa !16
  %48 = load ptr, ptr %10, align 8, !tbaa !8
  %49 = load i64, ptr %11, align 8, !tbaa !10
  %50 = call ptr @ecxkey_pubfromdata(ptr noundef %47, ptr noundef %48, i64 noundef %49)
  store ptr %50, ptr %14, align 8, !tbaa !3
  %51 = load ptr, ptr %14, align 8, !tbaa !3
  %52 = icmp eq ptr %51, null
  br i1 %52, label %53, label %54

53:                                               ; preds = %46
  br label %83

54:                                               ; preds = %46
  %55 = load ptr, ptr %13, align 8, !tbaa !3
  %56 = call ptr @ecx_pubkey(ptr noundef %55)
  store ptr %56, ptr %16, align 8, !tbaa !8
  %57 = load ptr, ptr %16, align 8, !tbaa !8
  %58 = icmp eq ptr %57, null
  br i1 %58, label %59, label %60

59:                                               ; preds = %54
  br label %83

60:                                               ; preds = %54
  %61 = load ptr, ptr %7, align 8, !tbaa !16
  %62 = load ptr, ptr %8, align 8, !tbaa !8
  %63 = load ptr, ptr %7, align 8, !tbaa !16
  %64 = getelementptr inbounds nuw %struct.PROV_ECX_CTX, ptr %63, i32 0, i32 0
  %65 = load ptr, ptr %64, align 8, !tbaa !43
  %66 = load ptr, ptr %14, align 8, !tbaa !3
  %67 = load ptr, ptr %7, align 8, !tbaa !16
  %68 = getelementptr inbounds nuw %struct.PROV_ECX_CTX, ptr %67, i32 0, i32 0
  %69 = load ptr, ptr %68, align 8, !tbaa !43
  %70 = load ptr, ptr %7, align 8, !tbaa !16
  %71 = getelementptr inbounds nuw %struct.PROV_ECX_CTX, ptr %70, i32 0, i32 1
  %72 = load ptr, ptr %71, align 8, !tbaa !49
  %73 = load ptr, ptr %10, align 8, !tbaa !8
  %74 = load ptr, ptr %16, align 8, !tbaa !8
  %75 = call i32 @derive_secret(ptr noundef %61, ptr noundef %62, ptr noundef %65, ptr noundef %66, ptr noundef %69, ptr noundef %72, ptr noundef %73, ptr noundef %74)
  %76 = icmp ne i32 %75, 0
  br i1 %76, label %78, label %77

77:                                               ; preds = %60
  br label %83

78:                                               ; preds = %60
  %79 = load ptr, ptr %15, align 8, !tbaa !16
  %80 = getelementptr inbounds nuw %struct.OSSL_HPKE_KEM_INFO, ptr %79, i32 0, i32 4
  %81 = load i64, ptr %80, align 8, !tbaa !28
  %82 = load ptr, ptr %9, align 8, !tbaa !34
  store i64 %81, ptr %82, align 8, !tbaa !10
  store i32 1, ptr %12, align 4, !tbaa !12
  br label %83

83:                                               ; preds = %78, %77, %59, %53
  %84 = load ptr, ptr %14, align 8, !tbaa !3
  call void @ossl_ecx_key_free(ptr noundef %84)
  %85 = load i32, ptr %12, align 4, !tbaa !12
  store i32 %85, ptr %6, align 4
  store i32 1, ptr %17, align 4
  br label %86

86:                                               ; preds = %83, %45, %38, %26
  call void @llvm.lifetime.end.p0(i64 8, ptr %16) #5
  call void @llvm.lifetime.end.p0(i64 8, ptr %15) #5
  call void @llvm.lifetime.end.p0(i64 8, ptr %14) #5
  call void @llvm.lifetime.end.p0(i64 8, ptr %13) #5
  call void @llvm.lifetime.end.p0(i64 4, ptr %12) #5
  %87 = load i32, ptr %6, align 4
  ret i32 %87
}

; Function Attrs: nounwind uwtable
define internal i32 @ecxkem_decapsulate(ptr noundef %0, ptr noundef %1, ptr noundef %2, ptr noundef %3, i64 noundef %4) #0 {
  %6 = alloca i32, align 4
  %7 = alloca ptr, align 8
  %8 = alloca ptr, align 8
  %9 = alloca ptr, align 8
  %10 = alloca ptr, align 8
  %11 = alloca i64, align 8
  %12 = alloca ptr, align 8
  %13 = alloca i32, align 4
  store ptr %0, ptr %7, align 8, !tbaa !16
  store ptr %1, ptr %8, align 8, !tbaa !8
  store ptr %2, ptr %9, align 8, !tbaa !34
  store ptr %3, ptr %10, align 8, !tbaa !8
  store i64 %4, ptr %11, align 8, !tbaa !10
  call void @llvm.lifetime.start.p0(i64 8, ptr %12) #5
  %14 = load ptr, ptr %7, align 8, !tbaa !16
  store ptr %14, ptr %12, align 8, !tbaa !16
  %15 = load ptr, ptr %12, align 8, !tbaa !16
  %16 = getelementptr inbounds nuw %struct.PROV_ECX_CTX, ptr %15, i32 0, i32 4
  %17 = load i32, ptr %16, align 8, !tbaa !36
  switch i32 %17, label %25 [
    i32 1, label %18
  ]

18:                                               ; preds = %5
  %19 = load ptr, ptr %7, align 8, !tbaa !16
  %20 = load ptr, ptr %8, align 8, !tbaa !8
  %21 = load ptr, ptr %9, align 8, !tbaa !34
  %22 = load ptr, ptr %10, align 8, !tbaa !8
  %23 = load i64, ptr %11, align 8, !tbaa !10
  %24 = call i32 @dhkem_decap(ptr noundef %19, ptr noundef %20, ptr noundef %21, ptr noundef %22, i64 noundef %23)
  store i32 %24, ptr %6, align 4
  store i32 1, ptr %13, align 4
  br label %26

25:                                               ; preds = %5
  call void @ERR_new()
  call void @ERR_set_debug(ptr noundef @.str, i32 noundef 681, ptr noundef @__func__.ecxkem_decapsulate)
  call void (i32, i32, ptr, ...) @ERR_set_error(i32 noundef 57, i32 noundef 125, ptr noundef null)
  store i32 -2, ptr %6, align 4
  store i32 1, ptr %13, align 4
  br label %26

26:                                               ; preds = %25, %18
  call void @llvm.lifetime.end.p0(i64 8, ptr %12) #5
  %27 = load i32, ptr %6, align 4
  ret i32 %27
}