; Function Attrs: nounwind uwtable
define internal range(i32 -2, 2) i32 @ecxkem_decapsulate(ptr noundef readonly captures(none) %0, ptr noundef %1, ptr noundef captures(none) %2, ptr noundef %3, i64 noundef %4) #0 {
  %6 = alloca [2 x %struct.ossl_param_st], align 16
  %7 = alloca %struct.ossl_param_st, align 8
  %8 = getelementptr inbounds nuw i8, ptr %0, i64 32
  %9 = load i32, ptr %8, align 8, !tbaa !29
  %cond = icmp eq i32 %9, 1
  br i1 %cond, label %10, label %58

10:                                               ; preds = %5
  %11 = load ptr, ptr %0, align 8, !tbaa !25
  %12 = getelementptr inbounds nuw i8, ptr %0, i64 64
  %13 = load ptr, ptr %12, align 8, !tbaa !26
  %14 = icmp eq ptr %1, null
  br i1 %14, label %15, label %18

15:                                               ; preds = %10
  %16 = getelementptr inbounds nuw i8, ptr %13, i64 32
  %17 = load i64, ptr %16, align 8, !tbaa !21
  store i64 %17, ptr %2, align 8, !tbaa !31
  br label %dhkem_decap.exit

18:                                               ; preds = %10
  %19 = load i64, ptr %2, align 8, !tbaa !31
  %20 = getelementptr inbounds nuw i8, ptr %13, i64 32
  %21 = load i64, ptr %20, align 8, !tbaa !21
  %22 = icmp ult i64 %19, %21
  br i1 %22, label %23, label %24

23:                                               ; preds = %18
  tail call void @ERR_new() #5
  tail call void @ERR_set_debug(ptr noundef nonnull @.str, i32 noundef 628, ptr noundef nonnull @__func__.dhkem_decap) #5
  tail call void (i32, i32, ptr, ...) @ERR_set_error(i32 noundef 57, i32 noundef 142, ptr noundef nonnull @.str.7) #5
  br label %dhkem_decap.exit

24:                                               ; preds = %18
  %25 = getelementptr inbounds nuw i8, ptr %13, i64 40
  %26 = load i64, ptr %25, align 8, !tbaa !30
  %.not.i = icmp eq i64 %4, %26
  br i1 %.not.i, label %28, label %27

27:                                               ; preds = %24
  tail call void @ERR_new() #5
  tail call void @ERR_set_debug(ptr noundef nonnull @.str, i32 noundef 632, ptr noundef nonnull @__func__.dhkem_decap) #5
  tail call void (i32, i32, ptr, ...) @ERR_set_error(i32 noundef 57, i32 noundef 158, ptr noundef nonnull @.str.11) #5
  br label %dhkem_decap.exit

28:                                               ; preds = %24
  call void @llvm.lifetime.start.p0(i64 80, ptr nonnull %6) #5
  %29 = getelementptr inbounds nuw i8, ptr %6, i64 40
  call void @OSSL_PARAM_construct_octet_string(ptr dead_on_unwind nonnull writable sret(%struct.ossl_param_st) align 8 %6, ptr noundef nonnull @.str.12, ptr noundef %3, i64 noundef %4) #5
  call void @llvm.lifetime.start.p0(i64 40, ptr nonnull %7) #5
  call void @OSSL_PARAM_construct_end(ptr dead_on_unwind nonnull writable sret(%struct.ossl_param_st) align 8 %7) #5
  call void @llvm.memcpy.p0.p0.i64(ptr noundef nonnull align 8 dereferenceable(40) %29, ptr noundef nonnull align 8 dereferenceable(40) %7, i64 40, i1 false), !tbaa.struct !37
  call void @llvm.lifetime.end.p0(i64 40, ptr nonnull %7) #5
  %30 = getelementptr inbounds nuw i8, ptr %0, i64 16
  %31 = load ptr, ptr %30, align 8, !tbaa !22
  %32 = load ptr, ptr %0, align 8, !tbaa !25
  %33 = getelementptr inbounds nuw i8, ptr %32, i64 96
  %34 = load i32, ptr %33, align 8, !tbaa !3
  %35 = getelementptr inbounds nuw i8, ptr %0, i64 24
  %36 = load ptr, ptr %35, align 8, !tbaa !34
  %37 = call ptr @ossl_ecx_key_new(ptr noundef %31, i32 noundef %34, i32 noundef 1, ptr noundef %36) #5
  %38 = icmp eq ptr %37, null
  br i1 %38, label %ecxkey_pubfromdata.exit.thread.i, label %39

39:                                               ; preds = %28
  %40 = call i32 @ossl_ecx_key_fromdata(ptr noundef nonnull %37, ptr noundef nonnull %6, i32 noundef 0) #5
  %41 = icmp slt i32 %40, 1
  br i1 %41, label %42, label %43

42:                                               ; preds = %39
  call void @ossl_ecx_key_free(ptr noundef nonnull %37) #5
  br label %ecxkey_pubfromdata.exit.thread.i

ecxkey_pubfromdata.exit.thread.i:                 ; preds = %42, %28
  call void @llvm.lifetime.end.p0(i64 80, ptr nonnull %6) #5
  br label %57

43:                                               ; preds = %39
  call void @llvm.lifetime.end.p0(i64 80, ptr nonnull %6) #5
  %44 = icmp eq ptr %11, null
  br i1 %44, label %ecx_pubkey.exit.thread.i, label %45

45:                                               ; preds = %43
  %46 = getelementptr inbounds nuw i8, ptr %11, i64 16
  %47 = load i8, ptr %46, align 8
  %48 = and i8 %47, 1
  %.not.i.i = icmp eq i8 %48, 0
  br i1 %.not.i.i, label %ecx_pubkey.exit.thread.i, label %49

ecx_pubkey.exit.thread.i:                         ; preds = %45, %43
  call void @ERR_new() #5
  call void @ERR_set_debug(ptr noundef nonnull @.str, i32 noundef 152, ptr noundef nonnull @__func__.ecx_pubkey) #5
  call void (i32, i32, ptr, ...) @ERR_set_error(i32 noundef 57, i32 noundef 220, ptr noundef null) #5
  br label %57

49:                                               ; preds = %45
  %50 = getelementptr inbounds nuw i8, ptr %11, i64 17
  %51 = load ptr, ptr %0, align 8, !tbaa !25
  %52 = getelementptr inbounds nuw i8, ptr %0, i64 8
  %53 = load ptr, ptr %52, align 8, !tbaa !35
  %54 = call fastcc i32 @derive_secret(ptr noundef nonnull readonly %0, ptr noundef nonnull %1, ptr noundef %51, ptr noundef nonnull %37, ptr noundef %51, ptr noundef %53, ptr noundef %3, ptr noundef %50)
  %.not32.i = icmp eq i32 %54, 0
  br i1 %.not32.i, label %57, label %55

55:                                               ; preds = %49
  %56 = load i64, ptr %20, align 8, !tbaa !21
  store i64 %56, ptr %2, align 8, !tbaa !31
  br label %57

57:                                               ; preds = %55, %49, %ecx_pubkey.exit.thread.i, %ecxkey_pubfromdata.exit.thread.i
  %.0.i35.i = phi ptr [ %37, %55 ], [ %37, %49 ], [ null, %ecxkey_pubfromdata.exit.thread.i ], [ %37, %ecx_pubkey.exit.thread.i ]
  %.027.i = phi i32 [ 1, %55 ], [ 0, %49 ], [ 0, %ecxkey_pubfromdata.exit.thread.i ], [ 0, %ecx_pubkey.exit.thread.i ]
  call void @ossl_ecx_key_free(ptr noundef %.0.i35.i) #5
  br label %dhkem_decap.exit

58:                                               ; preds = %5
  tail call void @ERR_new() #5
  tail call void @ERR_set_debug(ptr noundef nonnull @.str, i32 noundef 681, ptr noundef nonnull @__func__.ecxkem_decapsulate) #5
  tail call void (i32, i32, ptr, ...) @ERR_set_error(i32 noundef 57, i32 noundef 125, ptr noundef null) #5
  br label %dhkem_decap.exit

dhkem_decap.exit:                                 ; preds = %57, %27, %23, %15, %58
  %.0 = phi i32 [ -2, %58 ], [ 1, %15 ], [ 0, %23 ], [ 0, %27 ], [ %.027.i, %57 ]
  ret i32 %.0
}